; Function Attrs: nounwind sspstrong uwtable
define internal void @dbus_gl_scanout_dmabuf(ptr noundef readonly captures(none) %dcl, ptr noundef readonly captures(none) %dmabuf) #0 {
entry:
  %width = getelementptr inbounds nuw i8, ptr %dmabuf, i64 4
  %0 = load i32, ptr %width, align 4
  %height = getelementptr inbounds nuw i8, ptr %dmabuf, i64 8
  %1 = load i32, ptr %height, align 8
  %2 = getelementptr i8, ptr %dcl, i64 64
  %add.ptr.val = load ptr, ptr %2, align 8
  tail call void (ptr, ptr, ...) @g_object_set(ptr noundef %add.ptr.val, ptr noundef nonnull @.str.14, i32 noundef %0, ptr noundef nonnull @.str.15, i32 noundef %1, ptr noundef null) #9
  ret void
}